target datalayout = "e-m:e-p270:32:32-p271:32:32-p272:64:64-i64:64-i128:128-f80:128-n8:16:32:64-S128"
target triple = "x86_64-pc-linux-gnu"

%struct.magic_set = type { [2 x ptr], %struct.cont, %struct.out, i32, i32, i32, i32, i32, ptr, i64, i32, %struct.anon, %union.VALUETYPE, i16, i16, i16, i16, i16, i16, i64, i64, i64 }
%struct.cont = type { i64, ptr }
%struct.out = type { ptr, i64, ptr }
%struct.anon = type { ptr, i64, i64, i64 }
%union.VALUETYPE = type { [2 x i64], [112 x i8] }

; Function Attrs: nounwind uwtable
define hidden i32 @magic_getparam(ptr noundef %0, i32 noundef %1, ptr noundef %2) #0 {
  %4 = alloca i32, align 4
  %5 = alloca ptr, align 8
  %6 = alloca i32, align 4
  %7 = alloca ptr, align 8
  store ptr %0, ptr %5, align 8
  store i32 %1, ptr %6, align 4
  store ptr %2, ptr %7, align 8
  %8 = load ptr, ptr %5, align 8
  %9 = icmp eq ptr %8, null
  br i1 %9, label %10, label %11

10:                                               ; preds = %3
  store i32 -1, ptr %4, align 4
  br label %66

11:                                               ; preds = %3
  %12 = load i32, ptr %6, align 4
  switch i32 %12, label %64 [
    i32 0, label %13
    i32 1, label %19
    i32 2, label %25
    i32 3, label %31
    i32 8, label %37
    i32 4, label %42
    i32 5, label %48
    i32 6, label %54
    i32 7, label %59
  ]

13:                                               ; preds = %11
  %14 = load ptr, ptr %5, align 8
  %15 = getelementptr inbounds %struct.magic_set, ptr %14, i32 0, i32 13
  %16 = load i16, ptr %15, align 8
  %17 = zext i16 %16 to i64
  %18 = load ptr, ptr %7, align 8
  store i64 %17, ptr %18, align 8
  store i32 0, ptr %4, align 4
  br label %66

19:                                               ; preds = %11
  %20 = load ptr, ptr %5, align 8
  %21 = getelementptr inbounds %struct.magic_set, ptr %20, i32 0, i32 14
  %22 = load i16, ptr %21, align 2
  %23 = zext i16 %22 to i64
  %24 = load ptr, ptr %7, align 8
  store i64 %23, ptr %24, align 8
  store i32 0, ptr %4, align 4
  br label %66

25:                                               ; preds = %11
  %26 = load ptr, ptr %5, align 8
  %27 = getelementptr inbounds %struct.magic_set, ptr %26, i32 0, i32 16
  %28 = load i16, ptr %27, align 2
  %29 = zext i16 %28 to i64
  %30 = load ptr, ptr %7, align 8
  store i64 %29, ptr %30, align 8
  store i32 0, ptr %4, align 4
  br label %66

31:                                               ; preds = %11
  %32 = load ptr, ptr %5, align 8
  %33 = getelementptr inbounds %struct.magic_set, ptr %32, i32 0, i32 15
  %34 = load i16, ptr %33, align 4
  %35 = zext i16 %34 to i64
  %36 = load ptr, ptr %7, align 8
  store i64 %35, ptr %36, align 8
  store i32 0, ptr %4, align 4
  br label %66

37:                                               ; preds = %11
  %38 = load ptr, ptr %5, align 8
  %39 = getelementptr inbounds %struct.magic_set, ptr %38, i32 0, i32 21
  %40 = load i64, ptr %39, align 8
  %41 = load ptr, ptr %7, align 8
  store i64 %40, ptr %41, align 8
  store i32 0, ptr %4, align 4
  br label %66

42:                                               ; preds = %11
  %43 = load ptr, ptr %5, align 8
  %44 = getelementptr inbounds %struct.magic_set, ptr %43, i32 0, i32 17
  %45 = load i16, ptr %44, align 8
  %46 = zext i16 %45 to i64
  %47 = load ptr, ptr %7, align 8
  store i64 %46, ptr %47, align 8
  store i32 0, ptr %4, align 4
  br label %66

48:                                               ; preds = %11
  %49 = load ptr, ptr %5, align 8
  %50 = getelementptr inbounds %struct.magic_set, ptr %49, i32 0, i32 18
  %51 = load i16, ptr %50, align 2
  %52 = zext i16 %51 to i64
  %53 = load ptr, ptr %7, align 8
  store i64 %52, ptr %53, align 8
  store i32 0, ptr %4, align 4
  br label %66

54:                                               ; preds = %11
  %55 = load ptr, ptr %5, align 8
  %56 = getelementptr inbounds %struct.magic_set, ptr %55, i32 0, i32 19
  %57 = load i64, ptr %56, align 8
  %58 = load ptr, ptr %7, align 8
  store i64 %57, ptr %58, align 8
  store i32 0, ptr %4, align 4
  br label %66

59:                                               ; preds = %11
  %60 = load ptr, ptr %5, align 8
  %61 = getelementptr inbounds %struct.magic_set, ptr %60, i32 0, i32 20
  %62 = load i64, ptr %61, align 8
  %63 = load ptr, ptr %7, align 8
  store i64 %62, ptr %63, align 8
  store i32 0, ptr %4, align 4
  br label %66

64:                                               ; preds = %11
  %65 = call ptr @__errno_location() #9
  store i32 22, ptr %65, align 4
  store i32 -1, ptr %4, align 4
  br label %66

66:                                               ; preds = %64, %59, %54, %48, %42, %37, %31, %25, %19, %13, %10
  %67 = load i32, ptr %4, align 4
  ret i32 %67
}