; Function Attrs: mustprogress nofree nosync nounwind willreturn memory(write, argmem: readwrite, inaccessiblemem: none) uwtable
define hidden noundef i32 @magic_getparam(ptr noundef readonly %0, i32 noundef %1, ptr nocapture noundef writeonly %2) local_unnamed_addr #5 {
  %4 = icmp eq ptr %0, null
  br i1 %4, label %41, label %5

5:                                                ; preds = %3
  switch i32 %1, label %39 [
    i32 0, label %6
    i32 1, label %10
    i32 2, label %14
    i32 3, label %18
    i32 8, label %22
    i32 4, label %25
    i32 5, label %29
    i32 6, label %33
    i32 7, label %36
  ]

6:                                                ; preds = %5
  %7 = getelementptr inbounds i8, ptr %0, i64 264
  %8 = load i16, ptr %7, align 8
  %9 = zext i16 %8 to i64
  store i64 %9, ptr %2, align 8
  br label %41

10:                                               ; preds = %5
  %11 = getelementptr inbounds i8, ptr %0, i64 266
  %12 = load i16, ptr %11, align 2
  %13 = zext i16 %12 to i64
  store i64 %13, ptr %2, align 8
  br label %41

14:                                               ; preds = %5
  %15 = getelementptr inbounds i8, ptr %0, i64 270
  %16 = load i16, ptr %15, align 2
  %17 = zext i16 %16 to i64
  store i64 %17, ptr %2, align 8
  br label %41

18:                                               ; preds = %5
  %19 = getelementptr inbounds i8, ptr %0, i64 268
  %20 = load i16, ptr %19, align 4
  %21 = zext i16 %20 to i64
  store i64 %21, ptr %2, align 8
  br label %41

22:                                               ; preds = %5
  %23 = getelementptr inbounds i8, ptr %0, i64 296
  %24 = load i64, ptr %23, align 8
  store i64 %24, ptr %2, align 8
  br label %41

25:                                               ; preds = %5
  %26 = getelementptr inbounds i8, ptr %0, i64 272
  %27 = load i16, ptr %26, align 8
  %28 = zext i16 %27 to i64
  store i64 %28, ptr %2, align 8
  br label %41

29:                                               ; preds = %5
  %30 = getelementptr inbounds i8, ptr %0, i64 274
  %31 = load i16, ptr %30, align 2
  %32 = zext i16 %31 to i64
  store i64 %32, ptr %2, align 8
  br label %41

33:                                               ; preds = %5
  %34 = getelementptr inbounds i8, ptr %0, i64 280
  %35 = load i64, ptr %34, align 8
  store i64 %35, ptr %2, align 8
  br label %41

36:                                               ; preds = %5
  %37 = getelementptr inbounds i8, ptr %0, i64 288
  %38 = load i64, ptr %37, align 8
  store i64 %38, ptr %2, align 8
  br label %41

39:                                               ; preds = %5
  %40 = tail call ptr @__errno_location() #13
  store i32 22, ptr %40, align 4
  br label %41

41:                                               ; preds = %3, %39, %36, %33, %29, %25, %22, %18, %14, %10, %6
  %.0 = phi i32 [ -1, %39 ], [ 0, %36 ], [ 0, %33 ], [ 0, %29 ], [ 0, %25 ], [ 0, %22 ], [ 0, %18 ], [ 0, %14 ], [ 0, %10 ], [ 0, %6 ], [ -1, %3 ]
  ret i32 %.0
}